target datalayout = "e-m:e-p270:32:32-p271:32:32-p272:64:64-i64:64-i128:128-f80:128-n8:16:32:64-S128"
target triple = "x86_64-pc-linux-gnu"

@.str.5 = private unnamed_addr constant [32 x i8] c"../openssl/test/punycode_test.c\00", align 1
@.str.38 = private unnamed_addr constant [2 x i8] c"0\00", align 1
@.str.44 = private unnamed_addr constant [35 x i8] c"ossl_a2ulabel(\22xn--a.b.c\22, out, 1)\00", align 1
@.str.45 = private unnamed_addr constant [10 x i8] c"xn--a.b.c\00", align 1
@.str.46 = private unnamed_addr constant [35 x i8] c"ossl_a2ulabel(\22xn--a.b.c\22, out, 7)\00", align 1
@.str.47 = private unnamed_addr constant [2 x i8] c"1\00", align 1
@.str.48 = private unnamed_addr constant [35 x i8] c"ossl_a2ulabel(\22xn--a.b.c\22, out, 6)\00", align 1
@.str.49 = private unnamed_addr constant [4 x i8] c"out\00", align 1
@.str.50 = private unnamed_addr constant [15 x i8] c"\22\\xc2\\x80.b.c\22\00", align 1
@.str.51 = private unnamed_addr constant [7 x i8] c"\C2\80.b.c\00", align 1
@.str.52 = private unnamed_addr constant [39 x i8] c"ossl_a2ulabel(\22xn--e28h.com\22, out, 10)\00", align 1
@.str.53 = private unnamed_addr constant [13 x i8] c"xn--e28h.com\00", align 1
@.str.54 = private unnamed_addr constant [5 x i8] c"xn--\00", align 1
@.str.55 = private unnamed_addr constant [5 x i8] c"-3ya\00", align 1
@.str.56 = private unnamed_addr constant [27 x i8] c"ossl_a2ulabel(in, out, 50)\00", align 1
@.str.57 = private unnamed_addr constant [3 x i8] c"-1\00", align 1

; Function Attrs: nounwind uwtable
define internal i32 @test_a2ulabel() #0 {
  %1 = alloca i32, align 4
  %2 = alloca [50 x i8], align 16
  %3 = alloca [530 x i8], align 16
  %4 = alloca i32, align 4
  call void @llvm.lifetime.start.p0(i64 50, ptr %2) #7
  call void @llvm.lifetime.start.p0(i64 530, ptr %3) #7
  call void @llvm.memset.p0.i64(ptr align 16 %3, i8 0, i64 530, i1 false)
  %5 = getelementptr inbounds [50 x i8], ptr %2, i64 0, i64 0
  %6 = call i32 @ossl_a2ulabel(ptr noundef @.str.45, ptr noundef %5, i64 noundef 1)
  %7 = call i32 @test_int_eq(ptr noundef @.str.5, i32 noundef 199, ptr noundef @.str.44, ptr noundef @.str.38, i32 noundef %6, i32 noundef 0)
  %8 = icmp ne i32 %7, 0
  br i1 %8, label %9, label %14

9:                                                ; preds = %0
  %10 = getelementptr inbounds [50 x i8], ptr %2, i64 0, i64 0
  %11 = call i32 @ossl_a2ulabel(ptr noundef @.str.45, ptr noundef %10, i64 noundef 7)
  %12 = call i32 @test_int_eq(ptr noundef @.str.5, i32 noundef 200, ptr noundef @.str.46, ptr noundef @.str.47, i32 noundef %11, i32 noundef 1)
  %13 = icmp ne i32 %12, 0
  br i1 %13, label %15, label %14

14:                                               ; preds = %9, %0
  store i32 0, ptr %1, align 4
  store i32 1, ptr %4, align 4
  br label %50

15:                                               ; preds = %9
  %16 = getelementptr inbounds [50 x i8], ptr %2, i64 0, i64 0
  %17 = call i32 @ossl_a2ulabel(ptr noundef @.str.45, ptr noundef %16, i64 noundef 6)
  %18 = call i32 @test_int_eq(ptr noundef @.str.5, i32 noundef 203, ptr noundef @.str.48, ptr noundef @.str.38, i32 noundef %17, i32 noundef 0)
  %19 = icmp ne i32 %18, 0
  br i1 %19, label %20, label %29

20:                                               ; preds = %15
  %21 = getelementptr inbounds [50 x i8], ptr %2, i64 0, i64 0
  %22 = call i32 @ossl_a2ulabel(ptr noundef @.str.45, ptr noundef %21, i64 noundef 7)
  %23 = call i32 @test_int_eq(ptr noundef @.str.5, i32 noundef 204, ptr noundef @.str.46, ptr noundef @.str.47, i32 noundef %22, i32 noundef 1)
  %24 = icmp ne i32 %23, 0
  br i1 %24, label %25, label %29

25:                                               ; preds = %20
  %26 = getelementptr inbounds [50 x i8], ptr %2, i64 0, i64 0
  %27 = call i32 @test_str_eq(ptr noundef @.str.5, i32 noundef 205, ptr noundef @.str.49, ptr noundef @.str.50, ptr noundef %26, ptr noundef @.str.51)
  %28 = icmp ne i32 %27, 0
  br i1 %28, label %30, label %29

29:                                               ; preds = %25, %20, %15
  store i32 0, ptr %1, align 4
  store i32 1, ptr %4, align 4
  br label %50

30:                                               ; preds = %25
  %31 = getelementptr inbounds [50 x i8], ptr %2, i64 0, i64 0
  %32 = call i32 @ossl_a2ulabel(ptr noundef @.str.53, ptr noundef %31, i64 noundef 10)
  %33 = call i32 @test_int_eq(ptr noundef @.str.5, i32 noundef 209, ptr noundef @.str.52, ptr noundef @.str.47, i32 noundef %32, i32 noundef 1)
  %34 = icmp ne i32 %33, 0
  br i1 %34, label %36, label %35

35:                                               ; preds = %30
  store i32 0, ptr %1, align 4
  store i32 1, ptr %4, align 4
  br label %50

36:                                               ; preds = %30
  %37 = getelementptr inbounds [530 x i8], ptr %3, i64 0, i64 0
  %38 = call ptr @strcpy(ptr noundef %37, ptr noundef @.str.54) #7
  %39 = getelementptr inbounds [530 x i8], ptr %3, i64 0, i64 0
  %40 = getelementptr inbounds i8, ptr %39, i64 4
  call void @llvm.memset.p0.i64(ptr align 1 %40, i8 101, i64 513, i1 false)
  %41 = getelementptr inbounds [530 x i8], ptr %3, i64 0, i64 0
  %42 = getelementptr inbounds i8, ptr %41, i64 517
  call void @llvm.memcpy.p0.p0.i64(ptr align 1 %42, ptr align 1 @.str.55, i64 4, i1 false)
  %43 = getelementptr inbounds [530 x i8], ptr %3, i64 0, i64 0
  %44 = getelementptr inbounds [50 x i8], ptr %2, i64 0, i64 0
  %45 = call i32 @ossl_a2ulabel(ptr noundef %43, ptr noundef %44, i64 noundef 50)
  %46 = call i32 @test_int_eq(ptr noundef @.str.5, i32 noundef 216, ptr noundef @.str.56, ptr noundef @.str.57, i32 noundef %45, i32 noundef -1)
  %47 = icmp ne i32 %46, 0
  br i1 %47, label %49, label %48

48:                                               ; preds = %36
  store i32 0, ptr %1, align 4
  store i32 1, ptr %4, align 4
  br label %50

49:                                               ; preds = %36
  store i32 1, ptr %1, align 4
  store i32 1, ptr %4, align 4
  br label %50

50:                                               ; preds = %49, %48, %35, %29, %14
  call void @llvm.lifetime.end.p0(i64 530, ptr %3) #7
  call void @llvm.lifetime.end.p0(i64 50, ptr %2) #7
  %51 = load i32, ptr %1, align 4
  ret i32 %51
}