; Function Attrs: nounwind uwtable
define internal range(i32 0, 2) i32 @test_a2ulabel() #0 {
  %1 = alloca [50 x i8], align 16
  %2 = alloca [530 x i8], align 16
  call void @llvm.lifetime.start.p0(i64 50, ptr nonnull %1) #6
  call void @llvm.lifetime.start.p0(i64 530, ptr nonnull %2) #6
  %3 = getelementptr inbounds nuw i8, ptr %2, i64 512
  call void @llvm.memset.p0.i64(ptr noundef nonnull align 16 dereferenceable(530) %3, i8 0, i64 18, i1 false)
  %4 = call i32 @ossl_a2ulabel(ptr noundef nonnull @.str.45, ptr noundef nonnull %1, i64 noundef 1) #6
  %5 = call i32 @test_int_eq(ptr noundef nonnull @.str.5, i32 noundef 199, ptr noundef nonnull @.str.44, ptr noundef nonnull @.str.38, i32 noundef %4, i32 noundef 0) #6
  %.not = icmp eq i32 %5, 0
  br i1 %.not, label %25, label %6

6:                                                ; preds = %0
  %7 = call i32 @ossl_a2ulabel(ptr noundef nonnull @.str.45, ptr noundef nonnull %1, i64 noundef 7) #6
  %8 = call i32 @test_int_eq(ptr noundef nonnull @.str.5, i32 noundef 200, ptr noundef nonnull @.str.46, ptr noundef nonnull @.str.47, i32 noundef %7, i32 noundef 1) #6
  %.not1 = icmp eq i32 %8, 0
  br i1 %.not1, label %25, label %9

9:                                                ; preds = %6
  %10 = call i32 @ossl_a2ulabel(ptr noundef nonnull @.str.45, ptr noundef nonnull %1, i64 noundef 6) #6
  %11 = call i32 @test_int_eq(ptr noundef nonnull @.str.5, i32 noundef 203, ptr noundef nonnull @.str.48, ptr noundef nonnull @.str.38, i32 noundef %10, i32 noundef 0) #6
  %.not2 = icmp eq i32 %11, 0
  br i1 %.not2, label %25, label %12

12:                                               ; preds = %9
  %13 = call i32 @ossl_a2ulabel(ptr noundef nonnull @.str.45, ptr noundef nonnull %1, i64 noundef 7) #6
  %14 = call i32 @test_int_eq(ptr noundef nonnull @.str.5, i32 noundef 204, ptr noundef nonnull @.str.46, ptr noundef nonnull @.str.47, i32 noundef %13, i32 noundef 1) #6
  %.not3 = icmp eq i32 %14, 0
  br i1 %.not3, label %25, label %15

15:                                               ; preds = %12
  %16 = call i32 @test_str_eq(ptr noundef nonnull @.str.5, i32 noundef 205, ptr noundef nonnull @.str.49, ptr noundef nonnull @.str.50, ptr noundef nonnull %1, ptr noundef nonnull @.str.51) #6
  %.not4 = icmp eq i32 %16, 0
  br i1 %.not4, label %25, label %17

17:                                               ; preds = %15
  %18 = call i32 @ossl_a2ulabel(ptr noundef nonnull @.str.53, ptr noundef nonnull %1, i64 noundef 10) #6
  %19 = call i32 @test_int_eq(ptr noundef nonnull @.str.5, i32 noundef 209, ptr noundef nonnull @.str.52, ptr noundef nonnull @.str.47, i32 noundef %18, i32 noundef 1) #6
  %.not5 = icmp eq i32 %19, 0
  br i1 %.not5, label %25, label %20

20:                                               ; preds = %17
  call void @llvm.memcpy.p0.p0.i64(ptr noundef nonnull align 16 dereferenceable(5) %2, ptr noundef nonnull align 1 dereferenceable(5) @.str.54, i64 5, i1 false) #6
  %21 = getelementptr inbounds nuw i8, ptr %2, i64 4
  call void @llvm.memset.p0.i64(ptr noundef nonnull align 4 dereferenceable(513) %21, i8 101, i64 513, i1 false)
  %22 = getelementptr inbounds nuw i8, ptr %2, i64 517
  store i32 1635332909, ptr %22, align 1
  %23 = call i32 @ossl_a2ulabel(ptr noundef nonnull %2, ptr noundef nonnull %1, i64 noundef 50) #6
  %24 = call i32 @test_int_eq(ptr noundef nonnull @.str.5, i32 noundef 216, ptr noundef nonnull @.str.56, ptr noundef nonnull @.str.57, i32 noundef %23, i32 noundef -1) #6
  %.not6 = icmp ne i32 %24, 0
  %. = zext i1 %.not6 to i32
  br label %25

25:                                               ; preds = %20, %17, %9, %12, %15, %0, %6
  %.0 = phi i32 [ 0, %6 ], [ 0, %0 ], [ 0, %15 ], [ 0, %12 ], [ 0, %9 ], [ 0, %17 ], [ %., %20 ]
  call void @llvm.lifetime.end.p0(i64 530, ptr nonnull %2) #6
  call void @llvm.lifetime.end.p0(i64 50, ptr nonnull %1) #6
  ret i32 %.0
}